target datalayout = "e-m:e-p270:32:32-p271:32:32-p272:64:64-i64:64-i128:128-f80:128-n8:16:32:64-S128"
target triple = "x86_64-unknown-linux-gnu"

%"class.icu_75::SimpleTimeZone" = type { %"class.icu_75::BasicTimeZone", i8, i8, i8, i32, i32, i32, i8, i8, i8, i32, i32, i32, i8, i32, i32, i32, i8, ptr, ptr, ptr, ptr }
%"class.icu_75::BasicTimeZone" = type { %"class.icu_75::TimeZone" }
%"class.icu_75::TimeZone" = type { %"class.icu_75::UObject", %"class.icu_75::UnicodeString" }
%"class.icu_75::UObject" = type { ptr }
%"class.icu_75::UnicodeString" = type { %"class.icu_75::Replaceable", %"union.icu_75::UnicodeString::StackBufferOrFields" }
%"class.icu_75::Replaceable" = type { %"class.icu_75::UObject" }
%"union.icu_75::UnicodeString::StackBufferOrFields" = type { %struct.anon.0, [32 x i8] }
%struct.anon.0 = type { i16, i32, i32, ptr }

; Function Attrs: mustprogress nounwind uwtable
define internal noundef signext i8 @_ZL9U_FAILURE10UErrorCode(i32 noundef %code) #0 {
entry:
  %code.addr = alloca i32, align 4
  store i32 %code, ptr %code.addr, align 4
  %0 = load i32, ptr %code.addr, align 4
  %cmp = icmp sgt i32 %0, 0
  %conv = zext i1 %cmp to i8
  ret i8 %conv
}

; Function Attrs: mustprogress uwtable
define noundef i32 @_ZNK6icu_7514SimpleTimeZone9getOffsetEhiiihiiiR10UErrorCode(ptr noundef nonnull align 8 dereferenceable(160) %this, i8 noundef zeroext %era, i32 noundef %year, i32 noundef %month, i32 noundef %day, i8 noundef zeroext %dayOfWeek, i32 noundef %millis, i32 noundef %monthLength, i32 noundef %prevMonthLength, ptr noundef nonnull align 4 dereferenceable(4) %status) unnamed_addr #1 align 2 {
entry:
  %retval = alloca i32, align 4
  %this.addr = alloca ptr, align 8
  %era.addr = alloca i8, align 1
  %year.addr = alloca i32, align 4
  %month.addr = alloca i32, align 4
  %day.addr = alloca i32, align 4
  %dayOfWeek.addr = alloca i8, align 1
  %millis.addr = alloca i32, align 4
  %monthLength.addr = alloca i32, align 4
  %prevMonthLength.addr = alloca i32, align 4
  %status.addr = alloca ptr, align 8
  %result = alloca i32, align 4
  %southern = alloca i8, align 1
  %startCompare = alloca i32, align 4
  %endCompare = alloca i32, align 4
  store ptr %this, ptr %this.addr, align 8
  store i8 %era, ptr %era.addr, align 1
  store i32 %year, ptr %year.addr, align 4
  store i32 %month, ptr %month.addr, align 4
  store i32 %day, ptr %day.addr, align 4
  store i8 %dayOfWeek, ptr %dayOfWeek.addr, align 1
  store i32 %millis, ptr %millis.addr, align 4
  store i32 %monthLength, ptr %monthLength.addr, align 4
  store i32 %prevMonthLength, ptr %prevMonthLength.addr, align 4
  store ptr %status, ptr %status.addr, align 8
  %this1 = load ptr, ptr %this.addr, align 8
  %0 = load ptr, ptr %status.addr, align 8
  %1 = load i32, ptr %0, align 4
  %call = call noundef signext i8 @_ZL9U_FAILURE10UErrorCode(i32 noundef %1)
  %tobool = icmp ne i8 %call, 0
  br i1 %tobool, label %if.then, label %if.end

if.then:                                          ; preds = %entry
  store i32 0, ptr %retval, align 4
  br label %return

if.end:                                           ; preds = %entry
  %2 = load i8, ptr %era.addr, align 1
  %conv = zext i8 %2 to i32
  %cmp = icmp ne i32 %conv, 1
  br i1 %cmp, label %land.lhs.true, label %lor.lhs.false

land.lhs.true:                                    ; preds = %if.end
  %3 = load i8, ptr %era.addr, align 1
  %conv2 = zext i8 %3 to i32
  %cmp3 = icmp ne i32 %conv2, 0
  br i1 %cmp3, label %if.then29, label %lor.lhs.false

lor.lhs.false:                                    ; preds = %land.lhs.true, %if.end
  %4 = load i32, ptr %month.addr, align 4
  %cmp4 = icmp slt i32 %4, 0
  br i1 %cmp4, label %if.then29, label %lor.lhs.false5

lor.lhs.false5:                                   ; preds = %lor.lhs.false
  %5 = load i32, ptr %month.addr, align 4
  %cmp6 = icmp sgt i32 %5, 11
  br i1 %cmp6, label %if.then29, label %lor.lhs.false7

lor.lhs.false7:                                   ; preds = %lor.lhs.false5
  %6 = load i32, ptr %day.addr, align 4
  %cmp8 = icmp slt i32 %6, 1
  br i1 %cmp8, label %if.then29, label %lor.lhs.false9

lor.lhs.false9:                                   ; preds = %lor.lhs.false7
  %7 = load i32, ptr %day.addr, align 4
  %8 = load i32, ptr %monthLength.addr, align 4
  %cmp10 = icmp sgt i32 %7, %8
  br i1 %cmp10, label %if.then29, label %lor.lhs.false11

lor.lhs.false11:                                  ; preds = %lor.lhs.false9
  %9 = load i8, ptr %dayOfWeek.addr, align 1
  %conv12 = zext i8 %9 to i32
  %cmp13 = icmp slt i32 %conv12, 1
  br i1 %cmp13, label %if.then29, label %lor.lhs.false14

lor.lhs.false14:                                  ; preds = %lor.lhs.false11
  %10 = load i8, ptr %dayOfWeek.addr, align 1
  %conv15 = zext i8 %10 to i32
  %cmp16 = icmp sgt i32 %conv15, 7
  br i1 %cmp16, label %if.then29, label %lor.lhs.false17

lor.lhs.false17:                                  ; preds = %lor.lhs.false14
  %11 = load i32, ptr %millis.addr, align 4
  %cmp18 = icmp slt i32 %11, 0
  br i1 %cmp18, label %if.then29, label %lor.lhs.false19

lor.lhs.false19:                                  ; preds = %lor.lhs.false17
  %12 = load i32, ptr %millis.addr, align 4
  %cmp20 = icmp sge i32 %12, 86400000
  br i1 %cmp20, label %if.then29, label %lor.lhs.false21

lor.lhs.false21:                                  ; preds = %lor.lhs.false19
  %13 = load i32, ptr %monthLength.addr, align 4
  %cmp22 = icmp slt i32 %13, 28
  br i1 %cmp22, label %if.then29, label %lor.lhs.false23

lor.lhs.false23:                                  ; preds = %lor.lhs.false21
  %14 = load i32, ptr %monthLength.addr, align 4
  %cmp24 = icmp sgt i32 %14, 31
  br i1 %cmp24, label %if.then29, label %lor.lhs.false25

lor.lhs.false25:                                  ; preds = %lor.lhs.false23
  %15 = load i32, ptr %prevMonthLength.addr, align 4
  %cmp26 = icmp slt i32 %15, 28
  br i1 %cmp26, label %if.then29, label %lor.lhs.false27

lor.lhs.false27:                                  ; preds = %lor.lhs.false25
  %16 = load i32, ptr %prevMonthLength.addr, align 4
  %cmp28 = icmp sgt i32 %16, 31
  br i1 %cmp28, label %if.then29, label %if.end30

if.then29:                                        ; preds = %lor.lhs.false27, %lor.lhs.false25, %lor.lhs.false23, %lor.lhs.false21, %lor.lhs.false19, %lor.lhs.false17, %lor.lhs.false14, %lor.lhs.false11, %lor.lhs.false9, %lor.lhs.false7, %lor.lhs.false5, %lor.lhs.false, %land.lhs.true
  %17 = load ptr, ptr %status.addr, align 8
  store i32 1, ptr %17, align 4
  store i32 -1, ptr %retval, align 4
  br label %return

if.end30:                                         ; preds = %lor.lhs.false27
  %rawOffset = getelementptr inbounds %"class.icu_75::SimpleTimeZone", ptr %this1, i32 0, i32 12
  %18 = load i32, ptr %rawOffset, align 4
  store i32 %18, ptr %result, align 4
  %useDaylight = getelementptr inbounds %"class.icu_75::SimpleTimeZone", ptr %this1, i32 0, i32 13
  %19 = load i8, ptr %useDaylight, align 8
  %tobool31 = icmp ne i8 %19, 0
  br i1 %tobool31, label %lor.lhs.false32, label %if.then37

lor.lhs.false32:                                  ; preds = %if.end30
  %20 = load i32, ptr %year.addr, align 4
  %startYear = getelementptr inbounds %"class.icu_75::SimpleTimeZone", ptr %this1, i32 0, i32 11
  %21 = load i32, ptr %startYear, align 8
  %cmp33 = icmp slt i32 %20, %21
  br i1 %cmp33, label %if.then37, label %lor.lhs.false34

lor.lhs.false34:                                  ; preds = %lor.lhs.false32
  %22 = load i8, ptr %era.addr, align 1
  %conv35 = zext i8 %22 to i32
  %cmp36 = icmp ne i32 %conv35, 1
  br i1 %cmp36, label %if.then37, label %if.end38

if.then37:                                        ; preds = %lor.lhs.false34, %lor.lhs.false32, %if.end30
  %23 = load i32, ptr %result, align 4
  store i32 %23, ptr %retval, align 4
  br label %return

if.end38:                                         ; preds = %lor.lhs.false34
  %startMonth = getelementptr inbounds %"class.icu_75::SimpleTimeZone", ptr %this1, i32 0, i32 1
  %24 = load i8, ptr %startMonth, align 8
  %conv39 = sext i8 %24 to i32
  %endMonth = getelementptr inbounds %"class.icu_75::SimpleTimeZone", ptr %this1, i32 0, i32 7
  %25 = load i8, ptr %endMonth, align 8
  %conv40 = sext i8 %25 to i32
  %cmp41 = icmp sgt i32 %conv39, %conv40
  %conv42 = zext i1 %cmp41 to i8
  store i8 %conv42, ptr %southern, align 1
  %26 = load i32, ptr %month.addr, align 4
  %conv43 = trunc i32 %26 to i8
  %27 = load i32, ptr %monthLength.addr, align 4
  %conv44 = trunc i32 %27 to i8
  %28 = load i32, ptr %prevMonthLength.addr, align 4
  %conv45 = trunc i32 %28 to i8
  %29 = load i32, ptr %day.addr, align 4
  %conv46 = trunc i32 %29 to i8
  %30 = load i8, ptr %dayOfWeek.addr, align 1
  %31 = load i32, ptr %millis.addr, align 4
  %startTimeMode = getelementptr inbounds %"class.icu_75::SimpleTimeZone", ptr %this1, i32 0, i32 5
  %32 = load i32, ptr %startTimeMode, align 8
  %cmp47 = icmp eq i32 %32, 2
  br i1 %cmp47, label %cond.true, label %cond.false

cond.true:                                        ; preds = %if.end38
  %rawOffset48 = getelementptr inbounds %"class.icu_75::SimpleTimeZone", ptr %this1, i32 0, i32 12
  %33 = load i32, ptr %rawOffset48, align 4
  %sub = sub nsw i32 0, %33
  br label %cond.end

cond.false:                                       ; preds = %if.end38
  br label %cond.end

cond.end:                                         ; preds = %cond.false, %cond.true
  %cond = phi i32 [ %sub, %cond.true ], [ 0, %cond.false ]
  %startMode = getelementptr inbounds %"class.icu_75::SimpleTimeZone", ptr %this1, i32 0, i32 14
  %34 = load i32, ptr %startMode, align 4
  %startMonth49 = getelementptr inbounds %"class.icu_75::SimpleTimeZone", ptr %this1, i32 0, i32 1
  %35 = load i8, ptr %startMonth49, align 8
  %startDayOfWeek = getelementptr inbounds %"class.icu_75::SimpleTimeZone", ptr %this1, i32 0, i32 3
  %36 = load i8, ptr %startDayOfWeek, align 2
  %startDay = getelementptr inbounds %"class.icu_75::SimpleTimeZone", ptr %this1, i32 0, i32 2
  %37 = load i8, ptr %startDay, align 1
  %startTime = getelementptr inbounds %"class.icu_75::SimpleTimeZone", ptr %this1, i32 0, i32 4
  %38 = load i32, ptr %startTime, align 4
  %call50 = call noundef i32 @_ZN6icu_7514SimpleTimeZone13compareToRuleEaaaaaiiNS0_5EModeEaaai(i8 noundef signext %conv43, i8 noundef signext %conv44, i8 noundef signext %conv45, i8 noundef signext %conv46, i8 noundef signext %30, i32 noundef %31, i32 noundef %cond, i32 noundef %34, i8 noundef signext %35, i8 noundef signext %36, i8 noundef signext %37, i32 noundef %38)
  store i32 %call50, ptr %startCompare, align 4
  store i32 0, ptr %endCompare, align 4
  %39 = load i8, ptr %southern, align 1
  %conv51 = sext i8 %39 to i32
  %40 = load i32, ptr %startCompare, align 4
  %cmp52 = icmp sge i32 %40, 0
  %conv53 = zext i1 %cmp52 to i32
  %cmp54 = icmp ne i32 %conv51, %conv53
  br i1 %cmp54, label %if.then55, label %if.end75

if.then55:                                        ; preds = %cond.end
  %41 = load i32, ptr %month.addr, align 4
  %conv56 = trunc i32 %41 to i8
  %42 = load i32, ptr %monthLength.addr, align 4
  %conv57 = trunc i32 %42 to i8
  %43 = load i32, ptr %prevMonthLength.addr, align 4
  %conv58 = trunc i32 %43 to i8
  %44 = load i32, ptr %day.addr, align 4
  %conv59 = trunc i32 %44 to i8
  %45 = load i8, ptr %dayOfWeek.addr, align 1
  %46 = load i32, ptr %millis.addr, align 4
  %endTimeMode = getelementptr inbounds %"class.icu_75::SimpleTimeZone", ptr %this1, i32 0, i32 6
  %47 = load i32, ptr %endTimeMode, align 4
  %cmp60 = icmp eq i32 %47, 0
  br i1 %cmp60, label %cond.true61, label %cond.false62

cond.true61:                                      ; preds = %if.then55
  %dstSavings = getelementptr inbounds %"class.icu_75::SimpleTimeZone", ptr %this1, i32 0, i32 16
  %48 = load i32, ptr %dstSavings, align 4
  br label %cond.end71

cond.false62:                                     ; preds = %if.then55
  %endTimeMode63 = getelementptr inbounds %"class.icu_75::SimpleTimeZone", ptr %this1, i32 0, i32 6
  %49 = load i32, ptr %endTimeMode63, align 4
  %cmp64 = icmp eq i32 %49, 2
  br i1 %cmp64, label %cond.true65, label %cond.false68

cond.true65:                                      ; preds = %cond.false62
  %rawOffset66 = getelementptr inbounds %"class.icu_75::SimpleTimeZone", ptr %this1, i32 0, i32 12
  %50 = load i32, ptr %rawOffset66, align 4
  %sub67 = sub nsw i32 0, %50
  br label %cond.end69

cond.false68:                                     ; preds = %cond.false62
  br label %cond.end69

cond.end69:                                       ; preds = %cond.false68, %cond.true65
  %cond70 = phi i32 [ %sub67, %cond.true65 ], [ 0, %cond.false68 ]
  br label %cond.end71

cond.end71:                                       ; preds = %cond.end69, %cond.true61
  %cond72 = phi i32 [ %48, %cond.true61 ], [ %cond70, %cond.end69 ]
  %endMode = getelementptr inbounds %"class.icu_75::SimpleTimeZone", ptr %this1, i32 0, i32 15
  %51 = load i32, ptr %endMode, align 8
  %endMonth73 = getelementptr inbounds %"class.icu_75::SimpleTimeZone", ptr %this1, i32 0, i32 7
  %52 = load i8, ptr %endMonth73, align 8
  %endDayOfWeek = getelementptr inbounds %"class.icu_75::SimpleTimeZone", ptr %this1, i32 0, i32 9
  %53 = load i8, ptr %endDayOfWeek, align 2
  %endDay = getelementptr inbounds %"class.icu_75::SimpleTimeZone", ptr %this1, i32 0, i32 8
  %54 = load i8, ptr %endDay, align 1
  %endTime = getelementptr inbounds %"class.icu_75::SimpleTimeZone", ptr %this1, i32 0, i32 10
  %55 = load i32, ptr %endTime, align 4
  %call74 = call noundef i32 @_ZN6icu_7514SimpleTimeZone13compareToRuleEaaaaaiiNS0_5EModeEaaai(i8 noundef signext %conv56, i8 noundef signext %conv57, i8 noundef signext %conv58, i8 noundef signext %conv59, i8 noundef signext %45, i32 noundef %46, i32 noundef %cond72, i32 noundef %51, i8 noundef signext %52, i8 noundef signext %53, i8 noundef signext %54, i32 noundef %55)
  store i32 %call74, ptr %endCompare, align 4
  br label %if.end75

if.end75:                                         ; preds = %cond.end71, %cond.end
  %56 = load i8, ptr %southern, align 1
  %tobool76 = icmp ne i8 %56, 0
  br i1 %tobool76, label %lor.lhs.false81, label %land.lhs.true77

land.lhs.true77:                                  ; preds = %if.end75
  %57 = load i32, ptr %startCompare, align 4
  %cmp78 = icmp sge i32 %57, 0
  br i1 %cmp78, label %land.lhs.true79, label %lor.lhs.false81

land.lhs.true79:                                  ; preds = %land.lhs.true77
  %58 = load i32, ptr %endCompare, align 4
  %cmp80 = icmp slt i32 %58, 0
  br i1 %cmp80, label %if.then87, label %lor.lhs.false81

lor.lhs.false81:                                  ; preds = %land.lhs.true79, %land.lhs.true77, %if.end75
  %59 = load i8, ptr %southern, align 1
  %tobool82 = icmp ne i8 %59, 0
  br i1 %tobool82, label %land.lhs.true83, label %if.end89

land.lhs.true83:                                  ; preds = %lor.lhs.false81
  %60 = load i32, ptr %startCompare, align 4
  %cmp84 = icmp sge i32 %60, 0
  br i1 %cmp84, label %if.then87, label %lor.lhs.false85

lor.lhs.false85:                                  ; preds = %land.lhs.true83
  %61 = load i32, ptr %endCompare, align 4
  %cmp86 = icmp slt i32 %61, 0
  br i1 %cmp86, label %if.then87, label %if.end89

if.then87:                                        ; preds = %lor.lhs.false85, %land.lhs.true83, %land.lhs.true79
  %dstSavings88 = getelementptr inbounds %"class.icu_75::SimpleTimeZone", ptr %this1, i32 0, i32 16
  %62 = load i32, ptr %dstSavings88, align 4
  %63 = load i32, ptr %result, align 4
  %add = add nsw i32 %63, %62
  store i32 %add, ptr %result, align 4
  br label %if.end89

if.end89:                                         ; preds = %if.then87, %lor.lhs.false85, %lor.lhs.false81
  %64 = load i32, ptr %result, align 4
  store i32 %64, ptr %retval, align 4
  br label %return

return:                                           ; preds = %if.end89, %if.then37, %if.then29, %if.then
  %65 = load i32, ptr %retval, align 4
  ret i32 %65
}