; Function Attrs: mustprogress nofree norecurse nosync nounwind willreturn memory(argmem: readwrite) uwtable
define noundef i32 @_ZNK6icu_7514SimpleTimeZone9getOffsetEhiiihiiiR10UErrorCode(ptr nocapture noundef nonnull readonly align 8 dereferenceable(160) %this, i8 noundef zeroext %era, i32 noundef %year, i32 noundef %month, i32 noundef %day, i8 noundef zeroext %dayOfWeek, i32 noundef %millis, i32 noundef %monthLength, i32 noundef %prevMonthLength, ptr nocapture noundef nonnull align 4 dereferenceable(4) %status) unnamed_addr #5 align 2 {
entry:
  %0 = load i32, ptr %status, align 4
  %cmp.i = icmp slt i32 %0, 1
  br i1 %cmp.i, label %if.end, label %return

if.end:                                           ; preds = %entry
  %cmp = icmp ne i8 %era, 1
  %or.cond = icmp ugt i8 %era, 1
  %1 = icmp ugt i32 %month, 11
  %or.cond2 = or i1 %or.cond, %1
  %cmp8 = icmp slt i32 %day, 1
  %or.cond3 = or i1 %or.cond2, %cmp8
  br i1 %or.cond3, label %if.then29, label %lor.lhs.false9

lor.lhs.false9:                                   ; preds = %if.end
  %cmp10 = icmp sgt i32 %day, %monthLength
  %2 = add i8 %dayOfWeek, -8
  %3 = icmp ult i8 %2, -7
  %or.cond5 = or i1 %3, %cmp10
  %4 = icmp ugt i32 %millis, 86399999
  %or.cond7 = or i1 %4, %or.cond5
  %5 = add i32 %monthLength, -32
  %6 = icmp ult i32 %5, -4
  %or.cond9 = or i1 %6, %or.cond7
  %7 = add i32 %prevMonthLength, -32
  %8 = icmp ult i32 %7, -4
  %or.cond11 = or i1 %8, %or.cond9
  br i1 %or.cond11, label %if.then29, label %if.end30

if.then29:                                        ; preds = %if.end, %lor.lhs.false9
  store i32 1, ptr %status, align 4
  br label %return

if.end30:                                         ; preds = %lor.lhs.false9
  %rawOffset = getelementptr inbounds i8, ptr %this, i64 100
  %9 = load i32, ptr %rawOffset, align 4
  %useDaylight = getelementptr inbounds i8, ptr %this, i64 104
  %10 = load i8, ptr %useDaylight, align 8
  %tobool31.not = icmp eq i8 %10, 0
  br i1 %tobool31.not, label %return, label %lor.lhs.false32

lor.lhs.false32:                                  ; preds = %if.end30
  %startYear = getelementptr inbounds i8, ptr %this, i64 96
  %11 = load i32, ptr %startYear, align 8
  %cmp33 = icmp sgt i32 %11, %year
  %or.cond12 = or i1 %cmp, %cmp33
  br i1 %or.cond12, label %return, label %if.end38

if.end38:                                         ; preds = %lor.lhs.false32
  %startMonth = getelementptr inbounds i8, ptr %this, i64 72
  %12 = load i8, ptr %startMonth, align 8
  %endMonth = getelementptr inbounds i8, ptr %this, i64 88
  %13 = load i8, ptr %endMonth, align 8
  %cmp41 = icmp sgt i8 %12, %13
  %conv43 = trunc i32 %month to i8
  %conv44 = trunc i32 %monthLength to i8
  %conv45 = trunc i32 %prevMonthLength to i8
  %conv46 = trunc i32 %day to i8
  %startTimeMode = getelementptr inbounds i8, ptr %this, i64 80
  %14 = load i32, ptr %startTimeMode, align 8
  %cmp47 = icmp eq i32 %14, 2
  %sub = sub nsw i32 0, %9
  %spec.select = select i1 %cmp47, i32 %sub, i32 0
  %startMode = getelementptr inbounds i8, ptr %this, i64 108
  %15 = load i32, ptr %startMode, align 4
  %startDayOfWeek = getelementptr inbounds i8, ptr %this, i64 74
  %16 = load i8, ptr %startDayOfWeek, align 2
  %startDay = getelementptr inbounds i8, ptr %this, i64 73
  %17 = load i8, ptr %startDay, align 1
  %startTime = getelementptr inbounds i8, ptr %this, i64 76
  %18 = load i32, ptr %startTime, align 4
  %call50 = tail call noundef i32 @_ZN6icu_7514SimpleTimeZone13compareToRuleEaaaaaiiNS0_5EModeEaaai(i8 noundef signext %conv43, i8 noundef signext %conv44, i8 noundef signext %conv45, i8 noundef signext %conv46, i8 noundef signext %dayOfWeek, i32 noundef %millis, i32 noundef %spec.select, i32 noundef %15, i8 noundef signext %12, i8 noundef signext %16, i8 noundef signext %17, i32 noundef %18), !range !4
  %cmp52 = icmp sgt i32 %call50, -1
  %19 = xor i1 %cmp41, %cmp52
  br i1 %19, label %if.then55, label %if.end75

if.then55:                                        ; preds = %if.end38
  %endTimeMode = getelementptr inbounds i8, ptr %this, i64 84
  %20 = load i32, ptr %endTimeMode, align 4
  switch i32 %20, label %cond.end71 [
    i32 0, label %cond.true61
    i32 2, label %cond.true65
  ]

cond.true61:                                      ; preds = %if.then55
  %dstSavings = getelementptr inbounds i8, ptr %this, i64 116
  %21 = load i32, ptr %dstSavings, align 4
  br label %cond.end71

cond.true65:                                      ; preds = %if.then55
  br label %cond.end71

cond.end71:                                       ; preds = %if.then55, %cond.true65, %cond.true61
  %cond72 = phi i32 [ %21, %cond.true61 ], [ %sub, %cond.true65 ], [ 0, %if.then55 ]
  %endMode = getelementptr inbounds i8, ptr %this, i64 112
  %22 = load i32, ptr %endMode, align 8
  %endDayOfWeek = getelementptr inbounds i8, ptr %this, i64 90
  %23 = load i8, ptr %endDayOfWeek, align 2
  %endDay = getelementptr inbounds i8, ptr %this, i64 89
  %24 = load i8, ptr %endDay, align 1
  %endTime = getelementptr inbounds i8, ptr %this, i64 92
  %25 = load i32, ptr %endTime, align 4
  %call74 = tail call noundef i32 @_ZN6icu_7514SimpleTimeZone13compareToRuleEaaaaaiiNS0_5EModeEaaai(i8 noundef signext %conv43, i8 noundef signext %conv44, i8 noundef signext %conv45, i8 noundef signext %conv46, i8 noundef signext %dayOfWeek, i32 noundef %millis, i32 noundef %cond72, i32 noundef %22, i8 noundef signext %13, i8 noundef signext %23, i8 noundef signext %24, i32 noundef %25), !range !4
  %26 = icmp slt i32 %call74, 0
  br label %if.end75

if.end75:                                         ; preds = %cond.end71, %if.end38
  %endCompare.0 = phi i1 [ %26, %cond.end71 ], [ false, %if.end38 ]
  %tobool76 = xor i1 %cmp41, true
  %or.cond13 = and i1 %cmp52, %tobool76
  %or.cond14 = and i1 %or.cond13, %endCompare.0
  %or.cond15 = or i1 %cmp52, %endCompare.0
  %or.cond45 = and i1 %cmp41, %or.cond15
  %or.cond46 = or i1 %or.cond14, %or.cond45
  br i1 %or.cond46, label %if.then87, label %return

if.then87:                                        ; preds = %if.end75
  %dstSavings88 = getelementptr inbounds i8, ptr %this, i64 116
  %27 = load i32, ptr %dstSavings88, align 4
  %add = add nsw i32 %27, %9
  br label %return

return:                                           ; preds = %if.end75, %if.then87, %if.end30, %lor.lhs.false32, %entry, %if.then29
  %retval.0 = phi i32 [ -1, %if.then29 ], [ 0, %entry ], [ %9, %lor.lhs.false32 ], [ %9, %if.end30 ], [ %add, %if.then87 ], [ %9, %if.end75 ]
  ret i32 %retval.0
}